; ModuleID = 'source-C-CXX/52/407.c'
source_filename = "source-C-CXX/52/407.c"
target datalayout = "e-m:e-p270:32:32-p271:32:32-p272:64:64-i64:64-f80:128-n8:16:32:64-S128"
target triple = "x86_64-pc-linux-gnu"

@.str = private unnamed_addr constant [3 x i8] c"%d\00", align 1
@.str.1 = private unnamed_addr constant [4 x i8] c"%d,\00", align 1

; Function Attrs: nofree nounwind sspstrong uwtable
define dso_local i32 @main() local_unnamed_addr #0 {
  %1 = alloca i32, align 4
  %2 = alloca [300 x i32], align 16
  %3 = bitcast i32* %1 to i8*
  call void @llvm.lifetime.start.p0i8(i64 4, i8* nonnull %3) #3
  %4 = bitcast [300 x i32]* %2 to i8*
  call void @llvm.lifetime.start.p0i8(i64 1200, i8* nonnull %4) #3
  %5 = call i32 (i8*, ...) @__isoc99_scanf(i8* getelementptr inbounds ([3 x i8], [3 x i8]* @.str, i64 0, i64 0), i32* nonnull %1)
  %6 = load i32, i32* %1, align 4, !tbaa !5
  %7 = icmp sgt i32 %6, 0
  br i1 %7, label %12, label %127

8:                                                ; preds = %12
  %9 = icmp sgt i32 %17, 1
  br i1 %9, label %10, label %30

10:                                               ; preds = %8
  %11 = zext i32 %17 to i64
  br label %20

12:                                               ; preds = %0, %12
  %13 = phi i64 [ %16, %12 ], [ 0, %0 ]
  %14 = getelementptr inbounds [300 x i32], [300 x i32]* %2, i64 0, i64 %13
  %15 = call i32 (i8*, ...) @__isoc99_scanf(i8* getelementptr inbounds ([3 x i8], [3 x i8]* @.str, i64 0, i64 0), i32* nonnull %14)
  %16 = add nuw nsw i64 %13, 1
  %17 = load i32, i32* %1, align 4, !tbaa !5
  %18 = sext i32 %17 to i64
  %19 = icmp slt i64 %16, %18
  br i1 %19, label %12, label %8, !llvm.loop !9

20:                                               ; preds = %10, %62
  %21 = phi i64 [ 0, %10 ], [ %65, %62 ]
  %22 = phi i64 [ 1, %10 ], [ %63, %62 ]
  %23 = add i64 %21, 1
  %24 = getelementptr inbounds [300 x i32], [300 x i32]* %2, i64 0, i64 %22
  %25 = load i32, i32* %24, align 4, !tbaa !5
  %26 = and i64 %23, 1
  %27 = icmp eq i64 %21, 0
  br i1 %27, label %53, label %28

28:                                               ; preds = %20
  %29 = and i64 %23, -2
  br label %39

30:                                               ; preds = %62, %8
  %31 = icmp sgt i32 %17, 0
  br i1 %31, label %32, label %127

32:                                               ; preds = %30
  %33 = zext i32 %17 to i64
  %34 = add nsw i64 %33, -1
  %35 = and i64 %33, 3
  %36 = icmp ult i64 %34, 3
  br i1 %36, label %66, label %37

37:                                               ; preds = %32
  %38 = and i64 %33, 4294967292
  br label %87

39:                                               ; preds = %134, %28
  %40 = phi i32 [ %25, %28 ], [ %135, %134 ]
  %41 = phi i64 [ 0, %28 ], [ %136, %134 ]
  %42 = phi i64 [ %29, %28 ], [ %137, %134 ]
  %43 = getelementptr inbounds [300 x i32], [300 x i32]* %2, i64 0, i64 %41
  %44 = load i32, i32* %43, align 8, !tbaa !5
  %45 = icmp eq i32 %40, %44
  br i1 %45, label %46, label %47

46:                                               ; preds = %39
  store i32 1000000, i32* %24, align 4, !tbaa !5
  br label %47

47:                                               ; preds = %39, %46
  %48 = phi i32 [ %40, %39 ], [ 1000000, %46 ]
  %49 = or i64 %41, 1
  %50 = getelementptr inbounds [300 x i32], [300 x i32]* %2, i64 0, i64 %49
  %51 = load i32, i32* %50, align 4, !tbaa !5
  %52 = icmp eq i32 %48, %51
  br i1 %52, label %133, label %134

53:                                               ; preds = %134, %20
  %54 = phi i32 [ %25, %20 ], [ %135, %134 ]
  %55 = phi i64 [ 0, %20 ], [ %136, %134 ]
  %56 = icmp eq i64 %26, 0
  br i1 %56, label %62, label %57

57:                                               ; preds = %53
  %58 = getelementptr inbounds [300 x i32], [300 x i32]* %2, i64 0, i64 %55
  %59 = load i32, i32* %58, align 4, !tbaa !5
  %60 = icmp eq i32 %54, %59
  br i1 %60, label %61, label %62

61:                                               ; preds = %57
  store i32 1000000, i32* %24, align 4, !tbaa !5
  br label %62

62:                                               ; preds = %61, %57, %53
  %63 = add nuw nsw i64 %22, 1
  %64 = icmp eq i64 %63, %11
  %65 = add i64 %21, 1
  br i1 %64, label %30, label %20, !llvm.loop !11

66:                                               ; preds = %87, %32
  %67 = phi i64 [ 0, %32 ], [ %114, %87 ]
  %68 = phi i32 [ undef, %32 ], [ %113, %87 ]
  %69 = icmp eq i64 %35, 0
  br i1 %69, label %82, label %70

70:                                               ; preds = %66, %70
  %71 = phi i64 [ %79, %70 ], [ %67, %66 ]
  %72 = phi i32 [ %78, %70 ], [ %68, %66 ]
  %73 = phi i64 [ %80, %70 ], [ %35, %66 ]
  %74 = getelementptr inbounds [300 x i32], [300 x i32]* %2, i64 0, i64 %71
  %75 = load i32, i32* %74, align 4, !tbaa !5
  %76 = icmp eq i32 %75, 1000000
  %77 = trunc i64 %71 to i32
  %78 = select i1 %76, i32 %72, i32 %77
  %79 = add nuw nsw i64 %71, 1
  %80 = add i64 %73, -1
  %81 = icmp eq i64 %80, 0
  br i1 %81, label %82, label %70, !llvm.loop !12

82:                                               ; preds = %70, %66
  %83 = phi i32 [ %68, %66 ], [ %78, %70 ]
  %84 = icmp sgt i32 %83, 0
  br i1 %84, label %85, label %127

85:                                               ; preds = %82
  %86 = zext i32 %83 to i64
  br label %117

87:                                               ; preds = %87, %37
  %88 = phi i64 [ 0, %37 ], [ %114, %87 ]
  %89 = phi i32 [ undef, %37 ], [ %113, %87 ]
  %90 = phi i64 [ %38, %37 ], [ %115, %87 ]
  %91 = getelementptr inbounds [300 x i32], [300 x i32]* %2, i64 0, i64 %88
  %92 = load i32, i32* %91, align 16, !tbaa !5
  %93 = icmp eq i32 %92, 1000000
  %94 = trunc i64 %88 to i32
  %95 = select i1 %93, i32 %89, i32 %94
  %96 = or i64 %88, 1
  %97 = getelementptr inbounds [300 x i32], [300 x i32]* %2, i64 0, i64 %96
  %98 = load i32, i32* %97, align 4, !tbaa !5
  %99 = icmp eq i32 %98, 1000000
  %100 = trunc i64 %96 to i32
  %101 = select i1 %99, i32 %95, i32 %100
  %102 = or i64 %88, 2
  %103 = getelementptr inbounds [300 x i32], [300 x i32]* %2, i64 0, i64 %102
  %104 = load i32, i32* %103, align 8, !tbaa !5
  %105 = icmp eq i32 %104, 1000000
  %106 = trunc i64 %102 to i32
  %107 = select i1 %105, i32 %101, i32 %106
  %108 = or i64 %88, 3
  %109 = getelementptr inbounds [300 x i32], [300 x i32]* %2, i64 0, i64 %108
  %110 = load i32, i32* %109, align 4, !tbaa !5
  %111 = icmp eq i32 %110, 1000000
  %112 = trunc i64 %108 to i32
  %113 = select i1 %111, i32 %107, i32 %112
  %114 = add nuw nsw i64 %88, 4
  %115 = add i64 %90, -4
  %116 = icmp eq i64 %115, 0
  br i1 %116, label %66, label %87, !llvm.loop !14

117:                                              ; preds = %85, %124
  %118 = phi i64 [ 0, %85 ], [ %125, %124 ]
  %119 = getelementptr inbounds [300 x i32], [300 x i32]* %2, i64 0, i64 %118
  %120 = load i32, i32* %119, align 4, !tbaa !5
  %121 = icmp eq i32 %120, 1000000
  br i1 %121, label %124, label %122

122:                                              ; preds = %117
  %123 = call i32 (i8*, ...) @printf(i8* nonnull dereferenceable(1) getelementptr inbounds ([4 x i8], [4 x i8]* @.str.1, i64 0, i64 0), i32 %120)
  br label %124

124:                                              ; preds = %117, %122
  %125 = add nuw nsw i64 %118, 1
  %126 = icmp eq i64 %125, %86
  br i1 %126, label %127, label %117, !llvm.loop !15

127:                                              ; preds = %124, %0, %30, %82
  %128 = phi i32 [ %83, %82 ], [ undef, %30 ], [ undef, %0 ], [ %83, %124 ]
  %129 = sext i32 %128 to i64
  %130 = getelementptr inbounds [300 x i32], [300 x i32]* %2, i64 0, i64 %129
  %131 = load i32, i32* %130, align 4, !tbaa !5
  %132 = call i32 (i8*, ...) @printf(i8* nonnull dereferenceable(1) getelementptr inbounds ([3 x i8], [3 x i8]* @.str, i64 0, i64 0), i32 %131)
  call void @llvm.lifetime.end.p0i8(i64 1200, i8* nonnull %4) #3
  call void @llvm.lifetime.end.p0i8(i64 4, i8* nonnull %3) #3
  ret i32 0

133:                                              ; preds = %47
  store i32 1000000, i32* %24, align 4, !tbaa !5
  br label %134

134:                                              ; preds = %133, %47
  %135 = phi i32 [ %48, %47 ], [ 1000000, %133 ]
  %136 = add nuw nsw i64 %41, 2
  %137 = add i64 %42, -2
  %138 = icmp eq i64 %137, 0
  br i1 %138, label %53, label %39, !llvm.loop !16
}

; Function Attrs: argmemonly mustprogress nofree nosync nounwind willreturn
declare void @llvm.lifetime.start.p0i8(i64 immarg, i8* nocapture) #1

; Function Attrs: nofree nounwind
declare noundef i32 @__isoc99_scanf(i8* nocapture noundef readonly, ...) local_unnamed_addr #2

; Function Attrs: nofree nounwind
declare noundef i32 @printf(i8* nocapture noundef readonly, ...) local_unnamed_addr #2

; Function Attrs: argmemonly mustprogress nofree nosync nounwind willreturn
declare void @llvm.lifetime.end.p0i8(i64 immarg, i8* nocapture) #1


!llvm.module.flags = !{!0, !1, !2, !3}
!llvm.ident = !{!4}

!0 = !{i32 1, !"wchar_size", i32 4}
!1 = !{i32 7, !"PIC Level", i32 2}
!2 = !{i32 7, !"PIE Level", i32 2}
!3 = !{i32 7, !"uwtable", i32 1}
!4 = !{!"clang version 13.0.0"}
!5 = !{!6, !6, i64 0}
!6 = !{!"int", !7, i64 0}
!7 = !{!"omnipotent char", !8, i64 0}
!8 = !{!"Simple C/C++ TBAA"}
!9 = distinct !{!9, !10}
!10 = !{!"llvm.loop.mustprogress"}
!11 = distinct !{!11, !10}
!12 = distinct !{!12, !13}
!13 = !{!"llvm.loop.unroll.disable"}
!14 = distinct !{!14, !10}
!15 = distinct !{!15, !10}
!16 = distinct !{!16, !10}
